target datalayout = "e-m:e-p270:32:32-p271:32:32-p272:64:64-i64:64-i128:128-f80:128-n8:16:32:64-S128"
target triple = "x86_64-pc-linux-gnu"

%struct._lv_calendar_t = type { %struct._lv_obj_t, ptr, %struct.lv_calendar_date_t, %struct.lv_calendar_date_t, ptr, i64, [56 x ptr], i8, [42 x [20 x i8]] }
%struct._lv_obj_t = type { ptr, ptr, ptr, ptr, ptr, %struct.lv_area_t, i32, i16, i16 }
%struct.lv_area_t = type { i32, i32, i32, i32 }
%struct.lv_calendar_date_t = type { i16, i8, i8 }

@.str.2 = private unnamed_addr constant [2 x i8] c"\0A\00", align 1
@day_names_def = internal global [7 x ptr] [ptr @.str.4, ptr @.str.5, ptr @.str.6, ptr @.str.7, ptr @.str.8, ptr @.str.9, ptr @.str.10], align 16
@.str.3 = private unnamed_addr constant [1 x i8] zeroinitializer, align 1

; Function Attrs: nounwind uwtable
define void @lv_calendar_set_today_date(ptr noundef %0, i32 noundef %1, i32 noundef %2, i32 noundef %3) #0 {
  %5 = alloca ptr, align 8
  %6 = alloca i32, align 4
  %7 = alloca i32, align 4
  %8 = alloca i32, align 4
  %9 = alloca ptr, align 8
  store ptr %0, ptr %5, align 8, !tbaa !3
  store i32 %1, ptr %6, align 4, !tbaa !27
  store i32 %2, ptr %7, align 4, !tbaa !27
  store i32 %3, ptr %8, align 4, !tbaa !27
  br label %10

10:                                               ; preds = %4
  br label %11

11:                                               ; preds = %10
  call void @llvm.lifetime.start.p0(i64 8, ptr %9) #5
  %12 = load ptr, ptr %5, align 8, !tbaa !3
  store ptr %12, ptr %9, align 8, !tbaa !3
  %13 = load i32, ptr %6, align 4, !tbaa !27
  %14 = trunc i32 %13 to i16
  %15 = load ptr, ptr %9, align 8, !tbaa !3
  %16 = getelementptr inbounds nuw %struct._lv_calendar_t, ptr %15, i32 0, i32 2
  %17 = getelementptr inbounds nuw %struct.lv_calendar_date_t, ptr %16, i32 0, i32 0
  store i16 %14, ptr %17, align 8, !tbaa !7
  %18 = load i32, ptr %7, align 4, !tbaa !27
  %19 = trunc i32 %18 to i8
  %20 = load ptr, ptr %9, align 8, !tbaa !3
  %21 = getelementptr inbounds nuw %struct._lv_calendar_t, ptr %20, i32 0, i32 2
  %22 = getelementptr inbounds nuw %struct.lv_calendar_date_t, ptr %21, i32 0, i32 1
  store i8 %19, ptr %22, align 2, !tbaa !16
  %23 = load i32, ptr %8, align 4, !tbaa !27
  %24 = trunc i32 %23 to i8
  %25 = load ptr, ptr %9, align 8, !tbaa !3
  %26 = getelementptr inbounds nuw %struct._lv_calendar_t, ptr %25, i32 0, i32 2
  %27 = getelementptr inbounds nuw %struct.lv_calendar_date_t, ptr %26, i32 0, i32 2
  store i8 %24, ptr %27, align 1, !tbaa !17
  %28 = load ptr, ptr %5, align 8, !tbaa !3
  call void @highlight_update(ptr noundef %28)
  call void @llvm.lifetime.end.p0(i64 8, ptr %9) #5
  ret void
}

; Function Attrs: inlinehint nounwind uwtable
define internal void @lv_memzero(ptr noundef %0, i64 noundef %1) #3 {
  %3 = alloca ptr, align 8
  %4 = alloca i64, align 8
  store ptr %0, ptr %3, align 8, !tbaa !3
  store i64 %1, ptr %4, align 8, !tbaa !33
  %5 = load ptr, ptr %3, align 8, !tbaa !3
  %6 = load i64, ptr %4, align 8, !tbaa !33
  call void @lv_memset(ptr noundef %5, i8 noundef zeroext 0, i64 noundef %6)
  ret void
}

; Function Attrs: nounwind uwtable
define internal void @lv_calendar_constructor(ptr noundef %0, ptr noundef %1) #0 {
  %3 = alloca ptr, align 8
  %4 = alloca ptr, align 8
  %5 = alloca ptr, align 8
  %6 = alloca i8, align 1
  %7 = alloca i8, align 1
  store ptr %0, ptr %3, align 8, !tbaa !3
  store ptr %1, ptr %4, align 8, !tbaa !3
  call void @llvm.lifetime.start.p0(i64 8, ptr %5) #5
  %8 = load ptr, ptr %4, align 8, !tbaa !3
  store ptr %8, ptr %5, align 8, !tbaa !3
  %9 = load ptr, ptr %5, align 8, !tbaa !3
  %10 = getelementptr inbounds nuw %struct._lv_calendar_t, ptr %9, i32 0, i32 2
  %11 = getelementptr inbounds nuw %struct.lv_calendar_date_t, ptr %10, i32 0, i32 0
  store i16 2024, ptr %11, align 8, !tbaa !7
  %12 = load ptr, ptr %5, align 8, !tbaa !3
  %13 = getelementptr inbounds nuw %struct._lv_calendar_t, ptr %12, i32 0, i32 2
  %14 = getelementptr inbounds nuw %struct.lv_calendar_date_t, ptr %13, i32 0, i32 1
  store i8 1, ptr %14, align 2, !tbaa !16
  %15 = load ptr, ptr %5, align 8, !tbaa !3
  %16 = getelementptr inbounds nuw %struct._lv_calendar_t, ptr %15, i32 0, i32 2
  %17 = getelementptr inbounds nuw %struct.lv_calendar_date_t, ptr %16, i32 0, i32 2
  store i8 1, ptr %17, align 1, !tbaa !17
  %18 = load ptr, ptr %5, align 8, !tbaa !3
  %19 = getelementptr inbounds nuw %struct._lv_calendar_t, ptr %18, i32 0, i32 3
  %20 = getelementptr inbounds nuw %struct.lv_calendar_date_t, ptr %19, i32 0, i32 0
  store i16 2024, ptr %20, align 4, !tbaa !18
  %21 = load ptr, ptr %5, align 8, !tbaa !3
  %22 = getelementptr inbounds nuw %struct._lv_calendar_t, ptr %21, i32 0, i32 3
  %23 = getelementptr inbounds nuw %struct.lv_calendar_date_t, ptr %22, i32 0, i32 1
  store i8 1, ptr %23, align 2, !tbaa !19
  %24 = load ptr, ptr %5, align 8, !tbaa !3
  %25 = getelementptr inbounds nuw %struct._lv_calendar_t, ptr %24, i32 0, i32 3
  %26 = getelementptr inbounds nuw %struct.lv_calendar_date_t, ptr %25, i32 0, i32 2
  store i8 1, ptr %26, align 1, !tbaa !20
  %27 = load ptr, ptr %5, align 8, !tbaa !3
  %28 = getelementptr inbounds nuw %struct._lv_calendar_t, ptr %27, i32 0, i32 4
  store ptr null, ptr %28, align 8, !tbaa !21
  %29 = load ptr, ptr %5, align 8, !tbaa !3
  %30 = getelementptr inbounds nuw %struct._lv_calendar_t, ptr %29, i32 0, i32 5
  store i64 0, ptr %30, align 8, !tbaa !22
  %31 = load ptr, ptr %5, align 8, !tbaa !3
  %32 = getelementptr inbounds nuw %struct._lv_calendar_t, ptr %31, i32 0, i32 8
  %33 = getelementptr inbounds [42 x [20 x i8]], ptr %32, i64 0, i64 0
  call void @lv_memzero(ptr noundef %33, i64 noundef 840)
  call void @llvm.lifetime.start.p0(i64 1, ptr %6) #5
  call void @llvm.lifetime.start.p0(i64 1, ptr %7) #5
  store i8 0, ptr %7, align 1, !tbaa !23
  store i8 0, ptr %6, align 1, !tbaa !23
  br label %34

34:                                               ; preds = %90, %2
  %35 = load i8, ptr %6, align 1, !tbaa !23
  %36 = zext i8 %35 to i32
  %37 = icmp slt i32 %36, 56
  br i1 %37, label %38, label %93

38:                                               ; preds = %34
  %39 = load i8, ptr %6, align 1, !tbaa !23
  %40 = zext i8 %39 to i32
  %41 = icmp ne i32 %40, 0
  br i1 %41, label %42, label %54

42:                                               ; preds = %38
  %43 = load i8, ptr %6, align 1, !tbaa !23
  %44 = zext i8 %43 to i32
  %45 = add nsw i32 %44, 1
  %46 = srem i32 %45, 8
  %47 = icmp eq i32 %46, 0
  br i1 %47, label %48, label %54

48:                                               ; preds = %42
  %49 = load ptr, ptr %5, align 8, !tbaa !3
  %50 = getelementptr inbounds nuw %struct._lv_calendar_t, ptr %49, i32 0, i32 6
  %51 = load i8, ptr %6, align 1, !tbaa !23
  %52 = zext i8 %51 to i64
  %53 = getelementptr inbounds nuw [56 x ptr], ptr %50, i64 0, i64 %52
  store ptr @.str.2, ptr %53, align 8, !tbaa !3
  br label %89

54:                                               ; preds = %42, %38
  %55 = load i8, ptr %6, align 1, !tbaa !23
  %56 = zext i8 %55 to i32
  %57 = icmp slt i32 %56, 7
  br i1 %57, label %58, label %68

58:                                               ; preds = %54
  %59 = load i8, ptr %6, align 1, !tbaa !23
  %60 = zext i8 %59 to i64
  %61 = getelementptr inbounds nuw [7 x ptr], ptr @day_names_def, i64 0, i64 %60
  %62 = load ptr, ptr %61, align 8, !tbaa !3
  %63 = load ptr, ptr %5, align 8, !tbaa !3
  %64 = getelementptr inbounds nuw %struct._lv_calendar_t, ptr %63, i32 0, i32 6
  %65 = load i8, ptr %6, align 1, !tbaa !23
  %66 = zext i8 %65 to i64
  %67 = getelementptr inbounds nuw [56 x ptr], ptr %64, i64 0, i64 %66
  store ptr %62, ptr %67, align 8, !tbaa !3
  br label %88

68:                                               ; preds = %54
  %69 = load ptr, ptr %5, align 8, !tbaa !3
  %70 = getelementptr inbounds nuw %struct._lv_calendar_t, ptr %69, i32 0, i32 8
  %71 = load i8, ptr %7, align 1, !tbaa !23
  %72 = zext i8 %71 to i64
  %73 = getelementptr inbounds nuw [42 x [20 x i8]], ptr %70, i64 0, i64 %72
  %74 = getelementptr inbounds [20 x i8], ptr %73, i64 0, i64 0
  store i8 120, ptr %74, align 1, !tbaa !23
  %75 = load ptr, ptr %5, align 8, !tbaa !3
  %76 = getelementptr inbounds nuw %struct._lv_calendar_t, ptr %75, i32 0, i32 8
  %77 = load i8, ptr %7, align 1, !tbaa !23
  %78 = zext i8 %77 to i64
  %79 = getelementptr inbounds nuw [42 x [20 x i8]], ptr %76, i64 0, i64 %78
  %80 = getelementptr inbounds [20 x i8], ptr %79, i64 0, i64 0
  %81 = load ptr, ptr %5, align 8, !tbaa !3
  %82 = getelementptr inbounds nuw %struct._lv_calendar_t, ptr %81, i32 0, i32 6
  %83 = load i8, ptr %6, align 1, !tbaa !23
  %84 = zext i8 %83 to i64
  %85 = getelementptr inbounds nuw [56 x ptr], ptr %82, i64 0, i64 %84
  store ptr %80, ptr %85, align 8, !tbaa !3
  %86 = load i8, ptr %7, align 1, !tbaa !23
  %87 = add i8 %86, 1
  store i8 %87, ptr %7, align 1, !tbaa !23
  br label %88

88:                                               ; preds = %68, %58
  br label %89

89:                                               ; preds = %88, %48
  br label %90

90:                                               ; preds = %89
  %91 = load i8, ptr %6, align 1, !tbaa !23
  %92 = add i8 %91, 1
  store i8 %92, ptr %6, align 1, !tbaa !23
  br label %34, !llvm.loop !24

93:                                               ; preds = %34
  %94 = load ptr, ptr %5, align 8, !tbaa !3
  %95 = getelementptr inbounds nuw %struct._lv_calendar_t, ptr %94, i32 0, i32 6
  %96 = getelementptr inbounds [56 x ptr], ptr %95, i64 0, i64 55
  store ptr @.str.3, ptr %96, align 8, !tbaa !3
  %97 = load ptr, ptr %4, align 8, !tbaa !3
  %98 = call ptr @lv_buttonmatrix_create(ptr noundef %97)
  %99 = load ptr, ptr %5, align 8, !tbaa !3
  %100 = getelementptr inbounds nuw %struct._lv_calendar_t, ptr %99, i32 0, i32 1
  store ptr %98, ptr %100, align 8, !tbaa !26
  %101 = load ptr, ptr %5, align 8, !tbaa !3
  %102 = getelementptr inbounds nuw %struct._lv_calendar_t, ptr %101, i32 0, i32 1
  %103 = load ptr, ptr %102, align 8, !tbaa !26
  %104 = load ptr, ptr %5, align 8, !tbaa !3
  %105 = getelementptr inbounds nuw %struct._lv_calendar_t, ptr %104, i32 0, i32 6
  %106 = getelementptr inbounds [56 x ptr], ptr %105, i64 0, i64 0
  call void @lv_buttonmatrix_set_map(ptr noundef %103, ptr noundef %106)
  %107 = load ptr, ptr %5, align 8, !tbaa !3
  %108 = getelementptr inbounds nuw %struct._lv_calendar_t, ptr %107, i32 0, i32 1
  %109 = load ptr, ptr %108, align 8, !tbaa !26
  call void @lv_buttonmatrix_set_button_ctrl_all(ptr noundef %109, i32 noundef 544)
  %110 = load ptr, ptr %5, align 8, !tbaa !3
  %111 = getelementptr inbounds nuw %struct._lv_calendar_t, ptr %110, i32 0, i32 1
  %112 = load ptr, ptr %111, align 8, !tbaa !26
  %113 = call ptr @lv_obj_add_event_cb(ptr noundef %112, ptr noundef @draw_task_added_event_cb, i32 noundef 34, ptr noundef null)
  %114 = load ptr, ptr %5, align 8, !tbaa !3
  %115 = getelementptr inbounds nuw %struct._lv_calendar_t, ptr %114, i32 0, i32 1
  %116 = load ptr, ptr %115, align 8, !tbaa !26
  %117 = call i32 @lv_pct(i32 noundef 100)
  call void @lv_obj_set_width(ptr noundef %116, i32 noundef %117)
  %118 = load ptr, ptr %5, align 8, !tbaa !3
  %119 = getelementptr inbounds nuw %struct._lv_calendar_t, ptr %118, i32 0, i32 1
  %120 = load ptr, ptr %119, align 8, !tbaa !26
  call void @lv_obj_add_flag(ptr noundef %120, i32 noundef 540672)
  %121 = load ptr, ptr %4, align 8, !tbaa !3
  call void @lv_obj_set_flex_flow(ptr noundef %121, i32 noundef 1)
  %122 = load ptr, ptr %5, align 8, !tbaa !3
  %123 = getelementptr inbounds nuw %struct._lv_calendar_t, ptr %122, i32 0, i32 1
  %124 = load ptr, ptr %123, align 8, !tbaa !26
  call void @lv_obj_set_flex_grow(ptr noundef %124, i8 noundef zeroext 1)
  %125 = load ptr, ptr %4, align 8, !tbaa !3
  call void @lv_obj_set_style_text_align(ptr noundef %125, i32 noundef 2, i32 noundef 0)
  %126 = load ptr, ptr %4, align 8, !tbaa !3
  %127 = load ptr, ptr %5, align 8, !tbaa !3
  %128 = getelementptr inbounds nuw %struct._lv_calendar_t, ptr %127, i32 0, i32 3
  %129 = getelementptr inbounds nuw %struct.lv_calendar_date_t, ptr %128, i32 0, i32 0
  %130 = load i16, ptr %129, align 4, !tbaa !18
  %131 = zext i16 %130 to i32
  %132 = load ptr, ptr %5, align 8, !tbaa !3
  %133 = getelementptr inbounds nuw %struct._lv_calendar_t, ptr %132, i32 0, i32 3
  %134 = getelementptr inbounds nuw %struct.lv_calendar_date_t, ptr %133, i32 0, i32 1
  %135 = load i8, ptr %134, align 2, !tbaa !19
  %136 = sext i8 %135 to i32
  call void @lv_calendar_set_showed_date(ptr noundef %126, i32 noundef %131, i32 noundef %136)
  %137 = load ptr, ptr %4, align 8, !tbaa !3
  %138 = load ptr, ptr %5, align 8, !tbaa !3
  %139 = getelementptr inbounds nuw %struct._lv_calendar_t, ptr %138, i32 0, i32 2
  %140 = getelementptr inbounds nuw %struct.lv_calendar_date_t, ptr %139, i32 0, i32 0
  %141 = load i16, ptr %140, align 8, !tbaa !7
  %142 = zext i16 %141 to i32
  %143 = load ptr, ptr %5, align 8, !tbaa !3
  %144 = getelementptr inbounds nuw %struct._lv_calendar_t, ptr %143, i32 0, i32 2
  %145 = getelementptr inbounds nuw %struct.lv_calendar_date_t, ptr %144, i32 0, i32 1
  %146 = load i8, ptr %145, align 2, !tbaa !16
  %147 = sext i8 %146 to i32
  %148 = load ptr, ptr %5, align 8, !tbaa !3
  %149 = getelementptr inbounds nuw %struct._lv_calendar_t, ptr %148, i32 0, i32 2
  %150 = getelementptr inbounds nuw %struct.lv_calendar_date_t, ptr %149, i32 0, i32 2
  %151 = load i8, ptr %150, align 1, !tbaa !17
  %152 = sext i8 %151 to i32
  call void @lv_calendar_set_today_date(ptr noundef %137, i32 noundef %142, i32 noundef %147, i32 noundef %152)
  call void @llvm.lifetime.end.p0(i64 1, ptr %7) #5
  call void @llvm.lifetime.end.p0(i64 1, ptr %6) #5
  call void @llvm.lifetime.end.p0(i64 8, ptr %5) #5
  ret void
}